target datalayout = "e-m:e-p270:32:32-p271:32:32-p272:64:64-i64:64-i128:128-f80:128-n8:16:32:64-S128"
target triple = "x86_64-pc-linux-gnu"

%struct.Abc_Cex_t_ = type { i32, i32, i32, i32, i32, [0 x i32] }
%struct.Vec_Int_t_ = type { i32, i32, ptr }
%struct.Saig_ManCba_t_ = type { ptr, ptr, i32, i32, ptr, ptr, ptr, ptr }

; Function Attrs: inlinehint nounwind uwtable
define internal void @Abc_InfoSetBit(ptr noundef %0, i32 noundef %1) #2 {
  %3 = alloca ptr, align 8
  %4 = alloca i32, align 4
  store ptr %0, ptr %3, align 8, !tbaa !42
  store i32 %1, ptr %4, align 4, !tbaa !12
  %5 = load i32, ptr %4, align 4, !tbaa !12
  %6 = and i32 %5, 31
  %7 = shl i32 1, %6
  %8 = load ptr, ptr %3, align 8, !tbaa !42
  %9 = load i32, ptr %4, align 4, !tbaa !12
  %10 = ashr i32 %9, 5
  %11 = sext i32 %10 to i64
  %12 = getelementptr inbounds i32, ptr %8, i64 %11
  %13 = load i32, ptr %12, align 4, !tbaa !12
  %14 = or i32 %13, %7
  store i32 %14, ptr %12, align 4, !tbaa !12
  ret void
}

; Function Attrs: inlinehint nounwind uwtable
define internal i32 @Vec_IntEntry(ptr noundef %0, i32 noundef %1) #2 {
  %3 = alloca ptr, align 8
  %4 = alloca i32, align 4
  store ptr %0, ptr %3, align 8, !tbaa !10
  store i32 %1, ptr %4, align 4, !tbaa !12
  %5 = load ptr, ptr %3, align 8, !tbaa !10
  %6 = getelementptr inbounds nuw %struct.Vec_Int_t_, ptr %5, i32 0, i32 2
  %7 = load ptr, ptr %6, align 8, !tbaa !47
  %8 = load i32, ptr %4, align 4, !tbaa !12
  %9 = sext i32 %8 to i64
  %10 = getelementptr inbounds i32, ptr %7, i64 %9
  %11 = load i32, ptr %10, align 4, !tbaa !12
  ret i32 %11
}

; Function Attrs: inlinehint nounwind uwtable
define internal i32 @Vec_IntSize(ptr noundef %0) #2 {
  %2 = alloca ptr, align 8
  store ptr %0, ptr %2, align 8, !tbaa !10
  %3 = load ptr, ptr %2, align 8, !tbaa !10
  %4 = getelementptr inbounds nuw %struct.Vec_Int_t_, ptr %3, i32 0, i32 1
  %5 = load i32, ptr %4, align 4, !tbaa !44
  ret i32 %5
}

; Function Attrs: inlinehint nounwind uwtable
define internal i32 @Abc_BitWordNum(i32 noundef %0) #2 {
  %2 = alloca i32, align 4
  store i32 %0, ptr %2, align 4, !tbaa !12
  %3 = load i32, ptr %2, align 4, !tbaa !12
  %4 = ashr i32 %3, 5
  %5 = load i32, ptr %2, align 4, !tbaa !12
  %6 = and i32 %5, 31
  %7 = icmp sgt i32 %6, 0
  %8 = zext i1 %7 to i32
  %9 = add nsw i32 %4, %8
  ret i32 %9
}

; Function Attrs: nounwind uwtable
define ptr @Saig_ManCbaReason2Cex(ptr noundef %0, ptr noundef %1) #0 {
  %3 = alloca ptr, align 8
  %4 = alloca ptr, align 8
  %5 = alloca ptr, align 8
  %6 = alloca i32, align 4
  %7 = alloca i32, align 4
  %8 = alloca i32, align 4
  %9 = alloca i32, align 4
  store ptr %0, ptr %3, align 8, !tbaa !72
  store ptr %1, ptr %4, align 8, !tbaa !10
  call void @llvm.lifetime.start.p0(i64 8, ptr %5) #11
  call void @llvm.lifetime.start.p0(i64 4, ptr %6) #11
  call void @llvm.lifetime.start.p0(i64 4, ptr %7) #11
  call void @llvm.lifetime.start.p0(i64 4, ptr %8) #11
  call void @llvm.lifetime.start.p0(i64 4, ptr %9) #11
  %10 = load ptr, ptr %3, align 8, !tbaa !72
  %11 = getelementptr inbounds nuw %struct.Saig_ManCba_t_, ptr %10, i32 0, i32 1
  %12 = load ptr, ptr %11, align 8, !tbaa !79
  %13 = load ptr, ptr %3, align 8, !tbaa !72
  %14 = getelementptr inbounds nuw %struct.Saig_ManCba_t_, ptr %13, i32 0, i32 1
  %15 = load ptr, ptr %14, align 8, !tbaa !79
  %16 = getelementptr inbounds nuw %struct.Abc_Cex_t_, ptr %15, i32 0, i32 2
  %17 = load i32, ptr %16, align 4, !tbaa !31
  %18 = call ptr @Abc_CexDup(ptr noundef %12, i32 noundef %17)
  store ptr %18, ptr %5, align 8, !tbaa !8
  %19 = load ptr, ptr %5, align 8, !tbaa !8
  %20 = getelementptr inbounds nuw %struct.Abc_Cex_t_, ptr %19, i32 0, i32 5
  %21 = getelementptr inbounds [0 x i32], ptr %20, i64 0, i64 0
  %22 = load ptr, ptr %5, align 8, !tbaa !8
  %23 = getelementptr inbounds nuw %struct.Abc_Cex_t_, ptr %22, i32 0, i32 4
  %24 = load i32, ptr %23, align 4, !tbaa !80
  %25 = call i32 @Abc_BitWordNum(i32 noundef %24)
  %26 = sext i32 %25 to i64
  %27 = mul i64 4, %26
  call void @llvm.memset.p0.i64(ptr align 4 %21, i8 0, i64 %27, i1 false)
  store i32 0, ptr %6, align 4, !tbaa !12
  br label %28

28:                                               ; preds = %67, %2
  %29 = load i32, ptr %6, align 4, !tbaa !12
  %30 = load ptr, ptr %4, align 8, !tbaa !10
  %31 = call i32 @Vec_IntSize(ptr noundef %30)
  %32 = icmp slt i32 %29, %31
  br i1 %32, label %33, label %37

33:                                               ; preds = %28
  %34 = load ptr, ptr %4, align 8, !tbaa !10
  %35 = load i32, ptr %6, align 4, !tbaa !12
  %36 = call i32 @Vec_IntEntry(ptr noundef %34, i32 noundef %35)
  store i32 %36, ptr %7, align 4, !tbaa !12
  br label %37

37:                                               ; preds = %33, %28
  %38 = phi i1 [ false, %28 ], [ true, %33 ]
  br i1 %38, label %39, label %70

39:                                               ; preds = %37
  %40 = load ptr, ptr %3, align 8, !tbaa !72
  %41 = getelementptr inbounds nuw %struct.Saig_ManCba_t_, ptr %40, i32 0, i32 5
  %42 = load ptr, ptr %41, align 8, !tbaa !76
  %43 = load i32, ptr %7, align 4, !tbaa !12
  %44 = mul nsw i32 2, %43
  %45 = call i32 @Vec_IntEntry(ptr noundef %42, i32 noundef %44)
  store i32 %45, ptr %8, align 4, !tbaa !12
  %46 = load ptr, ptr %3, align 8, !tbaa !72
  %47 = getelementptr inbounds nuw %struct.Saig_ManCba_t_, ptr %46, i32 0, i32 5
  %48 = load ptr, ptr %47, align 8, !tbaa !76
  %49 = load i32, ptr %7, align 4, !tbaa !12
  %50 = mul nsw i32 2, %49
  %51 = add nsw i32 %50, 1
  %52 = call i32 @Vec_IntEntry(ptr noundef %48, i32 noundef %51)
  store i32 %52, ptr %9, align 4, !tbaa !12
  %53 = load ptr, ptr %5, align 8, !tbaa !8
  %54 = getelementptr inbounds nuw %struct.Abc_Cex_t_, ptr %53, i32 0, i32 5
  %55 = getelementptr inbounds [0 x i32], ptr %54, i64 0, i64 0
  %56 = load ptr, ptr %5, align 8, !tbaa !8
  %57 = getelementptr inbounds nuw %struct.Abc_Cex_t_, ptr %56, i32 0, i32 2
  %58 = load i32, ptr %57, align 4, !tbaa !31
  %59 = load ptr, ptr %5, align 8, !tbaa !8
  %60 = getelementptr inbounds nuw %struct.Abc_Cex_t_, ptr %59, i32 0, i32 3
  %61 = load i32, ptr %60, align 4, !tbaa !32
  %62 = load i32, ptr %9, align 4, !tbaa !12
  %63 = mul nsw i32 %61, %62
  %64 = add nsw i32 %58, %63
  %65 = load i32, ptr %8, align 4, !tbaa !12
  %66 = add nsw i32 %64, %65
  call void @Abc_InfoSetBit(ptr noundef %55, i32 noundef %66)
  br label %67

67:                                               ; preds = %39
  %68 = load i32, ptr %6, align 4, !tbaa !12
  %69 = add nsw i32 %68, 1
  store i32 %69, ptr %6, align 4, !tbaa !12
  br label %28, !llvm.loop !81

70:                                               ; preds = %37
  %71 = load ptr, ptr %5, align 8, !tbaa !8
  call void @llvm.lifetime.end.p0(i64 4, ptr %9) #11
  call void @llvm.lifetime.end.p0(i64 4, ptr %8) #11
  call void @llvm.lifetime.end.p0(i64 4, ptr %7) #11
  call void @llvm.lifetime.end.p0(i64 4, ptr %6) #11
  call void @llvm.lifetime.end.p0(i64 8, ptr %5) #11
  ret ptr %71
}