; Function Attrs: nounwind uwtable
define ptr @Saig_ManCbaReason2Cex(ptr noundef readonly captures(none) %0, ptr noundef readonly captures(none) %1) local_unnamed_addr #0 {
  %3 = getelementptr inbounds nuw i8, ptr %0, i64 8
  %4 = load ptr, ptr %3, align 8, !tbaa !69
  %5 = getelementptr inbounds nuw i8, ptr %4, i64 8
  %6 = load i32, ptr %5, align 4, !tbaa !39
  %7 = tail call ptr @Abc_CexDup(ptr noundef %4, i32 noundef %6) #20
  %8 = getelementptr inbounds nuw i8, ptr %7, i64 20
  %9 = getelementptr inbounds nuw i8, ptr %7, i64 16
  %10 = load i32, ptr %9, align 4, !tbaa !70
  %11 = ashr i32 %10, 5
  %12 = and i32 %10, 31
  %13 = icmp ne i32 %12, 0
  %14 = zext i1 %13 to i32
  %15 = add nsw i32 %11, %14
  %16 = sext i32 %15 to i64
  %17 = shl nsw i64 %16, 2
  tail call void @llvm.memset.p0.i64(ptr nonnull align 4 %8, i8 0, i64 %17, i1 false)
  %18 = getelementptr i8, ptr %1, i64 4
  %.val21 = load i32, ptr %18, align 4, !tbaa !3
  %19 = icmp sgt i32 %.val21, 0
  br i1 %19, label %.lr.ph, label %.critedge

.lr.ph:                                           ; preds = %2
  %20 = getelementptr i8, ptr %1, i64 8
  %.val20 = load ptr, ptr %20, align 8, !tbaa !11
  %21 = getelementptr inbounds nuw i8, ptr %0, i64 32
  %22 = load ptr, ptr %21, align 8, !tbaa !66
  %23 = getelementptr i8, ptr %22, i64 8
  %.val19 = load ptr, ptr %23, align 8, !tbaa !11
  %24 = getelementptr inbounds nuw i8, ptr %7, i64 8
  %25 = getelementptr inbounds nuw i8, ptr %7, i64 12
  br label %26

26:                                               ; preds = %.lr.ph, %26
  %indvars.iv = phi i64 [ 0, %.lr.ph ], [ %indvars.iv.next, %26 ]
  %27 = getelementptr inbounds nuw i32, ptr %.val20, i64 %indvars.iv
  %28 = load i32, ptr %27, align 4, !tbaa !12
  %29 = shl nsw i32 %28, 1
  %30 = sext i32 %29 to i64
  %31 = getelementptr inbounds i32, ptr %.val19, i64 %30
  %32 = load i32, ptr %31, align 4, !tbaa !12
  %33 = or disjoint i32 %29, 1
  %34 = sext i32 %33 to i64
  %35 = getelementptr inbounds i32, ptr %.val19, i64 %34
  %36 = load i32, ptr %35, align 4, !tbaa !12
  %37 = load i32, ptr %24, align 4, !tbaa !39
  %38 = load i32, ptr %25, align 4, !tbaa !38
  %39 = mul nsw i32 %38, %36
  %40 = add i32 %37, %32
  %41 = add i32 %40, %39
  %42 = and i32 %41, 31
  %43 = shl nuw i32 1, %42
  %44 = ashr i32 %41, 5
  %45 = sext i32 %44 to i64
  %46 = getelementptr inbounds i32, ptr %8, i64 %45
  %47 = load i32, ptr %46, align 4, !tbaa !12
  %48 = or i32 %43, %47
  store i32 %48, ptr %46, align 4, !tbaa !12
  %indvars.iv.next = add nuw nsw i64 %indvars.iv, 1
  %.val = load i32, ptr %18, align 4, !tbaa !3
  %49 = sext i32 %.val to i64
  %50 = icmp slt i64 %indvars.iv.next, %49
  br i1 %50, label %26, label %.critedge, !llvm.loop !71

.critedge:                                        ; preds = %26, %2
  ret ptr %7
}